target datalayout = "e-m:e-p270:32:32-p271:32:32-p272:64:64-i64:64-i128:128-f80:128-n8:16:32:64-S128"
target triple = "x86_64-pc-linux-gnu"

%"class.icu_77::StringLocalizationInfo" = type { %"class.icu_77::LocalizationInfo.base", ptr, ptr, i32, i32 }
%"class.icu_77::LocalizationInfo.base" = type <{ ptr, i32 }>

; Function Attrs: mustprogress uwtable
define noundef ptr @_ZNK6icu_7722StringLocalizationInfo14getRuleSetNameEi(ptr noundef nonnull align 8 dereferenceable(40) %0, i32 noundef %1) unnamed_addr #2 align 2 {
  %3 = alloca ptr, align 8
  %4 = alloca ptr, align 8
  %5 = alloca i32, align 4
  store ptr %0, ptr %4, align 8, !tbaa !65
  store i32 %1, ptr %5, align 4, !tbaa !12
  %6 = load ptr, ptr %4, align 8
  %7 = load i32, ptr %5, align 4, !tbaa !12
  %8 = icmp sge i32 %7, 0
  br i1 %8, label %9, label %25

9:                                                ; preds = %2
  %10 = load i32, ptr %5, align 4, !tbaa !12
  %11 = load ptr, ptr %6, align 8, !tbaa !10
  %12 = getelementptr inbounds ptr, ptr %11, i64 3
  %13 = load ptr, ptr %12, align 8
  %14 = call noundef i32 %13(ptr noundef nonnull align 8 dereferenceable(40) %6)
  %15 = icmp slt i32 %10, %14
  br i1 %15, label %16, label %25

16:                                               ; preds = %9
  %17 = getelementptr inbounds nuw %"class.icu_77::StringLocalizationInfo", ptr %6, i32 0, i32 2
  %18 = load ptr, ptr %17, align 8, !tbaa !70
  %19 = getelementptr inbounds ptr, ptr %18, i64 0
  %20 = load ptr, ptr %19, align 8, !tbaa !40
  %21 = load i32, ptr %5, align 4, !tbaa !12
  %22 = sext i32 %21 to i64
  %23 = getelementptr inbounds ptr, ptr %20, i64 %22
  %24 = load ptr, ptr %23, align 8, !tbaa !16
  store ptr %24, ptr %3, align 8
  br label %26

25:                                               ; preds = %9, %2
  store ptr null, ptr %3, align 8
  br label %26

26:                                               ; preds = %25, %16
  %27 = load ptr, ptr %3, align 8
  ret ptr %27
}